target datalayout = "e-m:e-p270:32:32-p271:32:32-p272:64:64-i64:64-i128:128-f80:128-n8:16:32:64-S128"
target triple = "x86_64-pc-linux-gnu"

%"class.Ipopt::SmartPtr.0" = type { ptr }
%"class.Ipopt::ReferencedObject" = type <{ ptr, i32, [4 x i8] }>

; Function Attrs: inlinehint mustprogress nounwind uwtable
define linkonce_odr noundef i32 @_ZNK5Ipopt16ReferencedObject14ReferenceCountEv(ptr noundef nonnull align 8 dereferenceable(12) %0) #6 comdat align 2 {
  %2 = alloca ptr, align 8
  store ptr %0, ptr %2, align 8, !tbaa !224
  %3 = load ptr, ptr %2, align 8
  %4 = getelementptr inbounds nuw %"class.Ipopt::ReferencedObject", ptr %3, i32 0, i32 1
  %5 = load i32, ptr %4, align 8, !tbaa !228
  ret i32 %5
}

; Function Attrs: inlinehint mustprogress nounwind uwtable
define linkonce_odr void @_ZNK5Ipopt16ReferencedObject10ReleaseRefEPKNS_10ReferencerE(ptr noundef nonnull align 8 dereferenceable(12) %0, ptr noundef %1) #6 comdat align 2 {
  %3 = alloca ptr, align 8
  %4 = alloca ptr, align 8
  store ptr %0, ptr %3, align 8, !tbaa !224
  store ptr %1, ptr %4, align 8, !tbaa !226
  %5 = load ptr, ptr %3, align 8
  %6 = getelementptr inbounds nuw %"class.Ipopt::ReferencedObject", ptr %5, i32 0, i32 1
  %7 = load i32, ptr %6, align 8, !tbaa !228
  %8 = add nsw i32 %7, -1
  store i32 %8, ptr %6, align 8, !tbaa !228
  ret void
}

; Function Attrs: noinline noreturn nounwind uwtable
define linkonce_odr hidden void @__clang_call_terminate(ptr noundef %0) #11 comdat {
  %2 = call ptr @__cxa_begin_catch(ptr %0) #15
  call void @_ZSt9terminatev() #17
  unreachable
}

; Function Attrs: mustprogress uwtable
define linkonce_odr void @_ZN5Ipopt8SmartPtrIKNS_6MatrixEE15ReleasePointer_Ev(ptr noundef nonnull align 8 dereferenceable(8) %0) #0 comdat align 2 {
  %2 = alloca ptr, align 8
  store ptr %0, ptr %2, align 8, !tbaa !61
  %3 = load ptr, ptr %2, align 8
  %4 = getelementptr inbounds nuw %"class.Ipopt::SmartPtr.0", ptr %3, i32 0, i32 0
  %5 = load ptr, ptr %4, align 8, !tbaa !63
  %6 = icmp ne ptr %5, null
  br i1 %6, label %7, label %25

7:                                                ; preds = %1
  %8 = getelementptr inbounds nuw %"class.Ipopt::SmartPtr.0", ptr %3, i32 0, i32 0
  %9 = load ptr, ptr %8, align 8, !tbaa !63
  call void @_ZNK5Ipopt16ReferencedObject10ReleaseRefEPKNS_10ReferencerE(ptr noundef nonnull align 8 dereferenceable(12) %9, ptr noundef %3)
  %10 = getelementptr inbounds nuw %"class.Ipopt::SmartPtr.0", ptr %3, i32 0, i32 0
  %11 = load ptr, ptr %10, align 8, !tbaa !63
  %12 = call noundef i32 @_ZNK5Ipopt16ReferencedObject14ReferenceCountEv(ptr noundef nonnull align 8 dereferenceable(12) %11)
  %13 = icmp eq i32 %12, 0
  br i1 %13, label %14, label %24

14:                                               ; preds = %7
  %15 = getelementptr inbounds nuw %"class.Ipopt::SmartPtr.0", ptr %3, i32 0, i32 0
  %16 = load ptr, ptr %15, align 8, !tbaa !63
  %17 = icmp eq ptr %16, null
  br i1 %17, label %22, label %18

18:                                               ; preds = %14
  %19 = load ptr, ptr %16, align 8, !tbaa !88
  %20 = getelementptr inbounds ptr, ptr %19, i64 1
  %21 = load ptr, ptr %20, align 8
  call void %21(ptr noundef nonnull align 8 dereferenceable(69) %16) #15
  br label %22

22:                                               ; preds = %18, %14
  %23 = getelementptr inbounds nuw %"class.Ipopt::SmartPtr.0", ptr %3, i32 0, i32 0
  store ptr null, ptr %23, align 8, !tbaa !63
  br label %24

24:                                               ; preds = %22, %7
  br label %25

25:                                               ; preds = %24, %1
  ret void
}

; Function Attrs: mustprogress nounwind uwtable
define linkonce_odr void @_ZN5Ipopt8SmartPtrIKNS_6MatrixEED2Ev(ptr noundef nonnull align 8 dereferenceable(8) %0) unnamed_addr #4 comdat align 2 personality ptr @__gxx_personality_v0 {
  %2 = alloca ptr, align 8
  store ptr %0, ptr %2, align 8, !tbaa !61
  %3 = load ptr, ptr %2, align 8
  invoke void @_ZN5Ipopt8SmartPtrIKNS_6MatrixEE15ReleasePointer_Ev(ptr noundef nonnull align 8 dereferenceable(8) %3)
          to label %4 unwind label %5

4:                                                ; preds = %1
  ret void

5:                                                ; preds = %1
  %6 = landingpad { ptr, i32 }
          catch ptr null
  %7 = extractvalue { ptr, i32 } %6, 0
  call void @__clang_call_terminate(ptr %7) #17
  unreachable
}

; Function Attrs: mustprogress nounwind uwtable
define linkonce_odr noundef nonnull align 8 dereferenceable(69) ptr @_ZNK5Ipopt8SmartPtrIKNS_6MatrixEEdeEv(ptr noundef nonnull align 8 dereferenceable(8) %0) #4 comdat align 2 {
  %2 = alloca ptr, align 8
  store ptr %0, ptr %2, align 8, !tbaa !61
  %3 = load ptr, ptr %2, align 8
  %4 = getelementptr inbounds nuw %"class.Ipopt::SmartPtr.0", ptr %3, i32 0, i32 0
  %5 = load ptr, ptr %4, align 8, !tbaa !63
  ret ptr %5
}

; Function Attrs: mustprogress nounwind uwtable
define linkonce_odr void @_ZN5Ipopt8SmartPtrIKNS_6MatrixEEC2Ev(ptr noundef nonnull align 8 dereferenceable(8) %0) unnamed_addr #4 comdat align 2 {
  %2 = alloca ptr, align 8
  store ptr %0, ptr %2, align 8, !tbaa !61
  %3 = load ptr, ptr %2, align 8
  %4 = getelementptr inbounds nuw %"class.Ipopt::SmartPtr.0", ptr %3, i32 0, i32 0
  store ptr null, ptr %4, align 8, !tbaa !63
  ret void
}

; Function Attrs: mustprogress uwtable
define void @_ZN5Ipopt13TripletHelper11FillRowCol_EiRKNS_9SumMatrixEiiPiS4_(i32 noundef %0, ptr noundef nonnull align 8 dereferenceable(128) %1, i32 noundef %2, i32 noundef %3, ptr noundef %4, ptr noundef %5) #0 align 2 personality ptr @__gxx_personality_v0 {
  %7 = alloca i32, align 4
  %8 = alloca ptr, align 8
  %9 = alloca i32, align 4
  %10 = alloca i32, align 4
  %11 = alloca ptr, align 8
  %12 = alloca ptr, align 8
  %13 = alloca i32, align 4
  %14 = alloca double, align 8
  %15 = alloca %"class.Ipopt::SmartPtr.0", align 8
  %16 = alloca ptr, align 8
  %17 = alloca i32, align 4
  %18 = alloca i32, align 4
  store i32 %0, ptr %7, align 4, !tbaa !72
  store ptr %1, ptr %8, align 8, !tbaa !22
  store i32 %2, ptr %9, align 4, !tbaa !72
  store i32 %3, ptr %10, align 4, !tbaa !72
  store ptr %4, ptr %11, align 8, !tbaa !92
  store ptr %5, ptr %12, align 8, !tbaa !92
  call void @llvm.lifetime.start.p0(i64 4, ptr %13) #15
  store i32 0, ptr %13, align 4, !tbaa !72
  br label %19

19:                                               ; preds = %49, %6
  %20 = load i32, ptr %13, align 4, !tbaa !72
  %21 = load ptr, ptr %8, align 8, !tbaa !22
  %22 = call noundef i32 @_ZNK5Ipopt9SumMatrix6NTermsEv(ptr noundef nonnull align 8 dereferenceable(128) %21)
  %23 = icmp slt i32 %20, %22
  br i1 %23, label %25, label %24

24:                                               ; preds = %19
  call void @llvm.lifetime.end.p0(i64 4, ptr %13) #15
  br label %61

25:                                               ; preds = %19
  call void @llvm.lifetime.start.p0(i64 8, ptr %14) #15
  store double 0.000000e+00, ptr %14, align 8, !tbaa !99
  call void @llvm.lifetime.start.p0(i64 8, ptr %15) #15
  call void @_ZN5Ipopt8SmartPtrIKNS_6MatrixEEC2Ev(ptr noundef nonnull align 8 dereferenceable(8) %15)
  %26 = load ptr, ptr %8, align 8, !tbaa !22
  %27 = load i32, ptr %13, align 4, !tbaa !72
  invoke void @_ZNK5Ipopt9SumMatrix7GetTermEiRdRNS_8SmartPtrIKNS_6MatrixEEE(ptr noundef nonnull align 8 dereferenceable(128) %26, i32 noundef %27, ptr noundef nonnull align 8 dereferenceable(8) %14, ptr noundef nonnull align 8 dereferenceable(8) %15)
          to label %28 unwind label %52

28:                                               ; preds = %25
  call void @llvm.lifetime.start.p0(i64 4, ptr %18) #15
  %29 = invoke noundef nonnull align 8 dereferenceable(69) ptr @_ZNK5Ipopt8SmartPtrIKNS_6MatrixEEdeEv(ptr noundef nonnull align 8 dereferenceable(8) %15)
          to label %30 unwind label %56

30:                                               ; preds = %28
  %31 = invoke noundef i32 @_ZN5Ipopt13TripletHelper16GetNumberEntriesERKNS_6MatrixE(ptr noundef nonnull align 8 dereferenceable(69) %29)
          to label %32 unwind label %56

32:                                               ; preds = %30
  store i32 %31, ptr %18, align 4, !tbaa !72
  %33 = load i32, ptr %18, align 4, !tbaa !72
  %34 = invoke noundef nonnull align 8 dereferenceable(69) ptr @_ZNK5Ipopt8SmartPtrIKNS_6MatrixEEdeEv(ptr noundef nonnull align 8 dereferenceable(8) %15)
          to label %35 unwind label %56

35:                                               ; preds = %32
  %36 = load ptr, ptr %11, align 8, !tbaa !92
  %37 = load ptr, ptr %12, align 8, !tbaa !92
  %38 = load i32, ptr %9, align 4, !tbaa !72
  %39 = load i32, ptr %10, align 4, !tbaa !72
  invoke void @_ZN5Ipopt13TripletHelper10FillRowColEiRKNS_6MatrixEPiS4_ii(i32 noundef %33, ptr noundef nonnull align 8 dereferenceable(69) %34, ptr noundef %36, ptr noundef %37, i32 noundef %38, i32 noundef %39)
          to label %40 unwind label %56

40:                                               ; preds = %35
  %41 = load i32, ptr %18, align 4, !tbaa !72
  %42 = load ptr, ptr %11, align 8, !tbaa !92
  %43 = sext i32 %41 to i64
  %44 = getelementptr inbounds i32, ptr %42, i64 %43
  store ptr %44, ptr %11, align 8, !tbaa !92
  %45 = load i32, ptr %18, align 4, !tbaa !72
  %46 = load ptr, ptr %12, align 8, !tbaa !92
  %47 = sext i32 %45 to i64
  %48 = getelementptr inbounds i32, ptr %46, i64 %47
  store ptr %48, ptr %12, align 8, !tbaa !92
  call void @llvm.lifetime.end.p0(i64 4, ptr %18) #15
  call void @_ZN5Ipopt8SmartPtrIKNS_6MatrixEED2Ev(ptr noundef nonnull align 8 dereferenceable(8) %15) #15
  call void @llvm.lifetime.end.p0(i64 8, ptr %15) #15
  call void @llvm.lifetime.end.p0(i64 8, ptr %14) #15
  br label %49

49:                                               ; preds = %40
  %50 = load i32, ptr %13, align 4, !tbaa !72
  %51 = add nsw i32 %50, 1
  store i32 %51, ptr %13, align 4, !tbaa !72
  br label %19, !llvm.loop !101

52:                                               ; preds = %25
  %53 = landingpad { ptr, i32 }
          cleanup
  %54 = extractvalue { ptr, i32 } %53, 0
  store ptr %54, ptr %16, align 8
  %55 = extractvalue { ptr, i32 } %53, 1
  store i32 %55, ptr %17, align 4
  br label %60

56:                                               ; preds = %35, %32, %30, %28
  %57 = landingpad { ptr, i32 }
          cleanup
  %58 = extractvalue { ptr, i32 } %57, 0
  store ptr %58, ptr %16, align 8
  %59 = extractvalue { ptr, i32 } %57, 1
  store i32 %59, ptr %17, align 4
  call void @llvm.lifetime.end.p0(i64 4, ptr %18) #15
  br label %60

60:                                               ; preds = %56, %52
  call void @_ZN5Ipopt8SmartPtrIKNS_6MatrixEED2Ev(ptr noundef nonnull align 8 dereferenceable(8) %15) #15
  call void @llvm.lifetime.end.p0(i64 8, ptr %15) #15
  call void @llvm.lifetime.end.p0(i64 8, ptr %14) #15
  call void @llvm.lifetime.end.p0(i64 4, ptr %13) #15
  br label %62

61:                                               ; preds = %24
  ret void

62:                                               ; preds = %60
  %63 = load ptr, ptr %16, align 8
  %64 = load i32, ptr %17, align 4
  %65 = insertvalue { ptr, i32 } poison, ptr %63, 0
  %66 = insertvalue { ptr, i32 } %65, i32 %64, 1
  resume { ptr, i32 } %66
}